; Function Attrs: mustprogress uwtable
define void @_ZN3zmq5own_t14process_seqnumEv(ptr noundef nonnull align 8 dereferenceable(1444) %this) unnamed_addr #0 align 2 {
entry:
  %_processed_seqnum = getelementptr inbounds i8, ptr %this, i64 1376
  %0 = load i64, ptr %_processed_seqnum, align 8
  %inc = add i64 %0, 1
  store i64 %inc, ptr %_processed_seqnum, align 8
  %_terminating.i = getelementptr inbounds i8, ptr %this, i64 1360
  %1 = load i8, ptr %_terminating.i, align 8
  %2 = and i8 %1, 1
  %tobool.not.i = icmp eq i8 %2, 0
  br i1 %tobool.not.i, label %_ZN3zmq5own_t15check_term_acksEv.exit, label %land.lhs.true.i

land.lhs.true.i:                                  ; preds = %entry
  %_sent_seqnum.i = getelementptr inbounds i8, ptr %this, i64 1368
  %3 = load atomic i32, ptr %_sent_seqnum.i seq_cst, align 8
  %conv.i = zext i32 %3 to i64
  %cmp.i = icmp eq i64 %inc, %conv.i
  %_term_acks.i = getelementptr inbounds i8, ptr %this, i64 1440
  %4 = load i32, ptr %_term_acks.i, align 8
  %cmp3.i = icmp eq i32 %4, 0
  %or.cond.i = select i1 %cmp.i, i1 %cmp3.i, i1 false
  br i1 %or.cond.i, label %do.body.i, label %_ZN3zmq5own_t15check_term_acksEv.exit

do.body.i:                                        ; preds = %land.lhs.true.i
  %_M_node_count.i.i.i = getelementptr inbounds i8, ptr %this, i64 1432
  %5 = load i64, ptr %_M_node_count.i.i.i, align 8
  %cmp.i.i.i = icmp eq i64 %5, 0
  br i1 %cmp.i.i.i, label %do.end.i, label %if.then6.i

if.then6.i:                                       ; preds = %do.body.i
  %6 = load ptr, ptr @stderr, align 8
  %call7.i = tail call i32 (ptr, ptr, ...) @fprintf(ptr noundef %6, ptr noundef nonnull @.str, ptr noundef nonnull @.str.5, ptr noundef nonnull @.str.2, i32 noundef 170) #21
  %7 = load ptr, ptr @stderr, align 8
  %call8.i = tail call i32 @fflush(ptr noundef %7)
  tail call void @_ZN3zmq9zmq_abortEPKc(ptr noundef nonnull @.str.5)
  br label %do.end.i

do.end.i:                                         ; preds = %if.then6.i, %do.body.i
  %_owner.i = getelementptr inbounds i8, ptr %this, i64 1384
  %8 = load ptr, ptr %_owner.i, align 8
  %tobool9.not.i = icmp eq ptr %8, null
  br i1 %tobool9.not.i, label %if.end12.i, label %if.then10.i

if.then10.i:                                      ; preds = %do.end.i
  tail call void @_ZN3zmq8object_t13send_term_ackEPNS_5own_tE(ptr noundef nonnull align 8 dereferenceable(20) %this, ptr noundef nonnull %8)
  br label %if.end12.i

if.end12.i:                                       ; preds = %if.then10.i, %do.end.i
  %vtable.i = load ptr, ptr %this, align 8
  %vfn.i = getelementptr inbounds i8, ptr %vtable.i, i64 184
  %9 = load ptr, ptr %vfn.i, align 8
  tail call void %9(ptr noundef nonnull align 8 dereferenceable(1444) %this)
  br label %_ZN3zmq5own_t15check_term_acksEv.exit

_ZN3zmq5own_t15check_term_acksEv.exit:            ; preds = %entry, %land.lhs.true.i, %if.end12.i
  ret void
}